; Function Attrs: mustprogress nofree norecurse nounwind memory(readwrite, argmem: none, inaccessiblemem: none) uwtable
define hidden noundef nonnull ptr @_ZN2cv7details12getExpTab32fEv() local_unnamed_addr #14 personality ptr @__gxx_personality_v0 {
  %1 = load atomic i8, ptr @_ZZN2cv7details12getExpTab32fEvE20expTab_f_initialized.0 seq_cst, align 1
  %2 = trunc i8 %1 to i1
  br i1 %2, label %8, label %.preheader

3:                                                ; preds = %.preheader
  store atomic i8 1, ptr @_ZZN2cv7details12getExpTab32fEvE20expTab_f_initialized.0 seq_cst, align 1
  br label %8

.preheader:                                       ; preds = %0, %.preheader
  %indvars.iv = phi i64 [ %indvars.iv.next, %.preheader ], [ 0, %0 ]
  %4 = getelementptr inbounds nuw [64 x double], ptr @_ZN2cv7detailsL6expTabE, i64 0, i64 %indvars.iv
  %5 = load double, ptr %4, align 8, !tbaa !91
  %6 = fptrunc double %5 to float
  %7 = getelementptr inbounds nuw [64 x float], ptr @_ZZN2cv7details12getExpTab32fEvE8expTab_f, i64 0, i64 %indvars.iv
  store float %6, ptr %7, align 4, !tbaa !89
  %indvars.iv.next = add nuw nsw i64 %indvars.iv, 1
  %exitcond.not = icmp eq i64 %indvars.iv.next, 64
  br i1 %exitcond.not, label %3, label %.preheader, !llvm.loop !228

8:                                                ; preds = %3, %0
  ret ptr @_ZZN2cv7details12getExpTab32fEvE8expTab_f
}